target datalayout = "e-m:e-p270:32:32-p271:32:32-p272:64:64-i64:64-i128:128-f80:128-n8:16:32:64-S128"
target triple = "x86_64-pc-linux-gnu"

%struct._object = type { %union.anon, ptr }
%union.anon = type { i64 }
%struct.SemLockObject = type { %struct._object, ptr, i64, i32, i32, i32, ptr }

@_Py_NoneStruct = external global %struct._object, align 8
@PyExc_OSError = external global ptr, align 8
@PyExc_AssertionError = external global ptr, align 8
@.str.16 = private unnamed_addr constant [54 x i8] c"attempt to release recursive lock not owned by thread\00", align 1
@PyExc_ValueError = external global ptr, align 8
@.str.17 = private unnamed_addr constant [42 x i8] c"semaphore or lock released too many times\00", align 1

; Function Attrs: nounwind uwtable
define internal ptr @_multiprocessing_SemLock_release_impl(ptr noundef %0) #0 {
  %2 = alloca ptr, align 8
  %3 = alloca ptr, align 8
  %4 = alloca i32, align 4
  %5 = alloca i32, align 4
  store ptr %0, ptr %3, align 8, !tbaa !10
  %6 = load ptr, ptr %3, align 8, !tbaa !10
  %7 = getelementptr inbounds nuw %struct.SemLockObject, ptr %6, i32 0, i32 5
  %8 = load i32, ptr %7, align 8, !tbaa !32
  %9 = icmp eq i32 %8, 0
  br i1 %9, label %10, label %34

10:                                               ; preds = %1
  %11 = load ptr, ptr %3, align 8, !tbaa !10
  %12 = getelementptr inbounds nuw %struct.SemLockObject, ptr %11, i32 0, i32 3
  %13 = load i32, ptr %12, align 8, !tbaa !33
  %14 = icmp sgt i32 %13, 0
  br i1 %14, label %15, label %21

15:                                               ; preds = %10
  %16 = call i64 @PyThread_get_thread_ident()
  %17 = load ptr, ptr %3, align 8, !tbaa !10
  %18 = getelementptr inbounds nuw %struct.SemLockObject, ptr %17, i32 0, i32 2
  %19 = load i64, ptr %18, align 8, !tbaa !34
  %20 = icmp eq i64 %16, %19
  br i1 %20, label %23, label %21

21:                                               ; preds = %15, %10
  %22 = load ptr, ptr @PyExc_AssertionError, align 8, !tbaa !8
  call void @PyErr_SetString(ptr noundef %22, ptr noundef @.str.16)
  store ptr null, ptr %2, align 8
  br label %70

23:                                               ; preds = %15
  %24 = load ptr, ptr %3, align 8, !tbaa !10
  %25 = getelementptr inbounds nuw %struct.SemLockObject, ptr %24, i32 0, i32 3
  %26 = load i32, ptr %25, align 8, !tbaa !33
  %27 = icmp sgt i32 %26, 1
  br i1 %27, label %28, label %33

28:                                               ; preds = %23
  %29 = load ptr, ptr %3, align 8, !tbaa !10
  %30 = getelementptr inbounds nuw %struct.SemLockObject, ptr %29, i32 0, i32 3
  %31 = load i32, ptr %30, align 8, !tbaa !33
  %32 = add i32 %31, -1
  store i32 %32, ptr %30, align 8, !tbaa !33
  store ptr @_Py_NoneStruct, ptr %2, align 8
  br label %70

33:                                               ; preds = %23
  br label %56

34:                                               ; preds = %1
  call void @llvm.lifetime.start.p0(i64 4, ptr %4) #10
  %35 = load ptr, ptr %3, align 8, !tbaa !10
  %36 = getelementptr inbounds nuw %struct.SemLockObject, ptr %35, i32 0, i32 1
  %37 = load ptr, ptr %36, align 8, !tbaa !13
  %38 = call i32 @sem_getvalue(ptr noundef %37, ptr noundef %4) #10
  %39 = icmp slt i32 %38, 0
  br i1 %39, label %40, label %43

40:                                               ; preds = %34
  %41 = load ptr, ptr @PyExc_OSError, align 8, !tbaa !8
  %42 = call ptr @PyErr_SetFromErrno(ptr noundef %41)
  store ptr %42, ptr %2, align 8
  store i32 1, ptr %5, align 4
  br label %53

43:                                               ; preds = %34
  %44 = load i32, ptr %4, align 4, !tbaa !29
  %45 = load ptr, ptr %3, align 8, !tbaa !10
  %46 = getelementptr inbounds nuw %struct.SemLockObject, ptr %45, i32 0, i32 4
  %47 = load i32, ptr %46, align 4, !tbaa !49
  %48 = icmp sge i32 %44, %47
  br i1 %48, label %49, label %51

49:                                               ; preds = %43
  %50 = load ptr, ptr @PyExc_ValueError, align 8, !tbaa !8
  call void @PyErr_SetString(ptr noundef %50, ptr noundef @.str.17)
  store ptr null, ptr %2, align 8
  store i32 1, ptr %5, align 4
  br label %53

51:                                               ; preds = %43
  br label %52

52:                                               ; preds = %51
  store i32 0, ptr %5, align 4
  br label %53

53:                                               ; preds = %52, %49, %40
  call void @llvm.lifetime.end.p0(i64 4, ptr %4) #10
  %54 = load i32, ptr %5, align 4
  switch i32 %54, label %72 [
    i32 0, label %55
    i32 1, label %70
  ]

55:                                               ; preds = %53
  br label %56

56:                                               ; preds = %55, %33
  %57 = load ptr, ptr %3, align 8, !tbaa !10
  %58 = getelementptr inbounds nuw %struct.SemLockObject, ptr %57, i32 0, i32 1
  %59 = load ptr, ptr %58, align 8, !tbaa !13
  %60 = call i32 @sem_post(ptr noundef %59) #10
  %61 = icmp slt i32 %60, 0
  br i1 %61, label %62, label %65

62:                                               ; preds = %56
  %63 = load ptr, ptr @PyExc_OSError, align 8, !tbaa !8
  %64 = call ptr @PyErr_SetFromErrno(ptr noundef %63)
  store ptr %64, ptr %2, align 8
  br label %70

65:                                               ; preds = %56
  %66 = load ptr, ptr %3, align 8, !tbaa !10
  %67 = getelementptr inbounds nuw %struct.SemLockObject, ptr %66, i32 0, i32 3
  %68 = load i32, ptr %67, align 8, !tbaa !33
  %69 = add i32 %68, -1
  store i32 %69, ptr %67, align 8, !tbaa !33
  store ptr @_Py_NoneStruct, ptr %2, align 8
  br label %70

70:                                               ; preds = %65, %62, %53, %28, %21
  %71 = load ptr, ptr %2, align 8
  ret ptr %71

72:                                               ; preds = %53
  unreachable
}