; Function Attrs: nounwind uwtable
define internal fastcc ptr @_multiprocessing_SemLock_release_impl(ptr noundef captures(none) %0) unnamed_addr #0 {
  %2 = alloca i32, align 4
  %3 = getelementptr inbounds nuw i8, ptr %0, i64 40
  %4 = load i32, ptr %3, align 8, !tbaa !29
  %5 = icmp eq i32 %4, 0
  br i1 %5, label %6, label %22

6:                                                ; preds = %1
  %7 = getelementptr inbounds nuw i8, ptr %0, i64 32
  %8 = load i32, ptr %7, align 8, !tbaa !30
  %9 = icmp sgt i32 %8, 0
  br i1 %9, label %10, label %15

10:                                               ; preds = %6
  %11 = tail call i64 @PyThread_get_thread_ident() #11
  %12 = getelementptr inbounds nuw i8, ptr %0, i64 24
  %13 = load i64, ptr %12, align 8, !tbaa !31
  %14 = icmp eq i64 %11, %13
  br i1 %14, label %17, label %15

15:                                               ; preds = %10, %6
  %16 = load ptr, ptr @PyExc_AssertionError, align 8, !tbaa !25
  tail call void @PyErr_SetString(ptr noundef %16, ptr noundef nonnull @.str.16) #11
  br label %49

17:                                               ; preds = %10
  %18 = load i32, ptr %7, align 8, !tbaa !30
  %19 = icmp sgt i32 %18, 1
  br i1 %19, label %20, label %37

20:                                               ; preds = %17
  %21 = add nsw i32 %18, -1
  store i32 %21, ptr %7, align 8, !tbaa !30
  br label %49

22:                                               ; preds = %1
  call void @llvm.lifetime.start.p0(i64 4, ptr nonnull %2) #11
  %23 = getelementptr inbounds nuw i8, ptr %0, i64 16
  %24 = load ptr, ptr %23, align 8, !tbaa !9
  %25 = call i32 @sem_getvalue(ptr noundef %24, ptr noundef nonnull %2) #11
  %26 = icmp slt i32 %25, 0
  br i1 %26, label %27, label %30

27:                                               ; preds = %22
  %28 = load ptr, ptr @PyExc_OSError, align 8, !tbaa !25
  %29 = call ptr @PyErr_SetFromErrno(ptr noundef %28) #11
  br label %.thread

30:                                               ; preds = %22
  %31 = load i32, ptr %2, align 4, !tbaa !33
  %32 = getelementptr inbounds nuw i8, ptr %0, i64 36
  %33 = load i32, ptr %32, align 4, !tbaa !32
  %.not = icmp slt i32 %31, %33
  br i1 %.not, label %36, label %34

34:                                               ; preds = %30
  %35 = load ptr, ptr @PyExc_ValueError, align 8, !tbaa !25
  call void @PyErr_SetString(ptr noundef %35, ptr noundef nonnull @.str.17) #11
  br label %.thread

.thread:                                          ; preds = %27, %34
  %.1.ph = phi ptr [ null, %34 ], [ %29, %27 ]
  call void @llvm.lifetime.end.p0(i64 4, ptr nonnull %2) #11
  br label %49

36:                                               ; preds = %30
  call void @llvm.lifetime.end.p0(i64 4, ptr nonnull %2) #11
  br label %37

37:                                               ; preds = %36, %17
  %38 = getelementptr inbounds nuw i8, ptr %0, i64 16
  %39 = load ptr, ptr %38, align 8, !tbaa !9
  %40 = call i32 @sem_post(ptr noundef %39) #11
  %41 = icmp slt i32 %40, 0
  br i1 %41, label %42, label %45

42:                                               ; preds = %37
  %43 = load ptr, ptr @PyExc_OSError, align 8, !tbaa !25
  %44 = call ptr @PyErr_SetFromErrno(ptr noundef %43) #11
  br label %49

45:                                               ; preds = %37
  %46 = getelementptr inbounds nuw i8, ptr %0, i64 32
  %47 = load i32, ptr %46, align 8, !tbaa !30
  %48 = add i32 %47, -1
  store i32 %48, ptr %46, align 8, !tbaa !30
  br label %49

49:                                               ; preds = %.thread, %45, %42, %20, %15
  %.010 = phi ptr [ @_Py_NoneStruct, %20 ], [ %44, %42 ], [ @_Py_NoneStruct, %45 ], [ null, %15 ], [ %.1.ph, %.thread ]
  ret ptr %.010
}